target datalayout = "e-m:e-p270:32:32-p271:32:32-p272:64:64-i64:64-i128:128-f80:128-n8:16:32:64-S128"
target triple = "x86_64-unknown-linux-gnu"

%"class.lp::lar_core_solver" = type { %class.vector, i32, %class.vector.0, %class.vector.1, %class.stacked_value, %"class.lp::stacked_vector", %class.vector.0, %"class.lp::stacked_vector.6", %"class.lp::stacked_vector.6", %"class.lp::static_matrix", %"class.lp::stacked_vector.12", %class.vector.9, %class.vector.9, %class.vector.8, %"class.lp::lp_primal_core_solver" }
%class.vector = type { ptr }
%class.vector.1 = type { ptr }
%class.stacked_value = type { i32, %class.vector.2 }
%class.vector.2 = type { ptr }
%"class.lp::stacked_vector" = type { %class.svector, %class.svector, %class.vector.4, %class.vector.5, %class.svector }
%class.vector.4 = type { ptr }
%class.vector.5 = type { ptr }
%class.svector = type { %class.vector.3 }
%class.vector.3 = type { ptr }
%class.vector.0 = type { ptr }
%"class.lp::stacked_vector.6" = type { %class.svector, %class.svector, %class.vector.7, %class.vector.0, %class.svector }
%class.vector.7 = type { ptr }
%"class.lp::static_matrix" = type { %"class.std::stack", %class.vector.8, %"class.lp::indexed_vector", %class.vector.10, %class.vector.11 }
%"class.std::stack" = type { %"class.std::deque" }
%"class.std::deque" = type { %"class.std::_Deque_base" }
%"class.std::_Deque_base" = type { %"struct.std::_Deque_base<lp::static_matrix<rational, lp::numeric_pair<rational>>::dim, std::allocator<lp::static_matrix<rational, lp::numeric_pair<rational>>::dim>>::_Deque_impl" }
%"struct.std::_Deque_base<lp::static_matrix<rational, lp::numeric_pair<rational>>::dim, std::allocator<lp::static_matrix<rational, lp::numeric_pair<rational>>::dim>>::_Deque_impl" = type { %"struct.std::_Deque_base<lp::static_matrix<rational, lp::numeric_pair<rational>>::dim, std::allocator<lp::static_matrix<rational, lp::numeric_pair<rational>>::dim>>::_Deque_impl_data" }
%"struct.std::_Deque_base<lp::static_matrix<rational, lp::numeric_pair<rational>>::dim, std::allocator<lp::static_matrix<rational, lp::numeric_pair<rational>>::dim>>::_Deque_impl_data" = type { ptr, i64, %"struct.std::_Deque_iterator", %"struct.std::_Deque_iterator" }
%"struct.std::_Deque_iterator" = type { ptr, ptr, ptr, ptr }
%"class.lp::indexed_vector" = type { %class.vector.1, %class.vector.9 }
%class.vector.10 = type { ptr }
%class.vector.11 = type { ptr }
%"class.lp::stacked_vector.12" = type { %class.svector, %class.svector, %class.vector.13, %class.vector.9, %class.svector }
%class.vector.13 = type { ptr }
%class.vector.9 = type { ptr }
%class.vector.8 = type { ptr }
%"class.lp::lp_primal_core_solver" = type { %"class.lp::lp_core_solver_base.base", i32, %class.vector.1, i32, i8, %class.indexed_uint_set, i32, i32, %class.vector.9, %"class.std::__cxx11::list" }
%"class.lp::lp_core_solver_base.base" = type <{ ptr, i32, i32, i32, [4 x i8], %class.heap, %"class.lp::indexed_vector", ptr, ptr, ptr, ptr, ptr, ptr, ptr, ptr, %class.vector.1, ptr, ptr, ptr, i32, [4 x i8], %class.vector.9, i8, [7 x i8], ptr, i8 }>
%class.heap = type { %class.svector.14, %class.svector.14 }
%class.svector.14 = type { %class.vector.15 }
%class.vector.15 = type { ptr }
%class.indexed_uint_set = type { i32, %class.svector, %class.svector }
%"class.std::__cxx11::list" = type { %"class.std::__cxx11::_List_base" }
%"class.std::__cxx11::_List_base" = type { %"struct.std::__cxx11::_List_base<unsigned int, std::allocator<unsigned int>>::_List_impl" }
%"struct.std::__cxx11::_List_base<unsigned int, std::allocator<unsigned int>>::_List_impl" = type { %"struct.std::__detail::_List_node_header" }
%"struct.std::__detail::_List_node_header" = type { %"struct.std::__detail::_List_node_base", i64 }
%"struct.std::__detail::_List_node_base" = type { ptr, ptr }
%"class.lp::lp_core_solver_base" = type <{ ptr, i32, i32, i32, [4 x i8], %class.heap, %"class.lp::indexed_vector", ptr, ptr, ptr, ptr, ptr, ptr, ptr, ptr, %class.vector.1, ptr, ptr, ptr, i32, [4 x i8], %class.vector.9, i8, [7 x i8], ptr, i8, [7 x i8] }>
%"struct.lp::lp_settings" = type <{ %"class.lp::lp_settings::default_lp_resource_limit", ptr, ptr, ptr, %"struct.lp::statistics", %class.random_gen, i32, i32, i32, i8, [3 x i8], i32, i8, [3 x i8], i32, [4 x i8], double, i8, i8, [2 x i8], i32, i32, i8, [3 x i8], i32, i8, [3 x i8], i32, i8, [3 x i8], i32, i32, i32, i32, i8, [3 x i8], i32, i32, i32, i8, i8, i8, [5 x i8] }>
%"class.lp::lp_settings::default_lp_resource_limit" = type { %"class.lp::lp_resource_limit", ptr, %class.stopwatch }
%"class.lp::lp_resource_limit" = type { ptr }
%class.stopwatch = type <{ %"class.std::chrono::time_point", %"class.std::chrono::duration", i8, [7 x i8] }>
%"class.std::chrono::time_point" = type { %"class.std::chrono::duration" }
%"class.std::chrono::duration" = type { i64 }
%"struct.lp::statistics" = type { i32, i32, i32, i32, i32, i32, i32, i32, i32, i32, i32, i32, i32, i32, i32, i32, i32, i32, i32, i32, i32, i32, i32, i32, i32, i32, i32, i32, i32, i32, i32 }
%class.random_gen = type { i32 }

; Function Attrs: mustprogress nounwind uwtable
define linkonce_odr hidden noundef i32 @_ZNK6vectorIS_IN2lp8row_cellINS0_12empty_structEEELb1EjELb1EjE4sizeEv(ptr noundef nonnull align 8 dereferenceable(8) %this) #5 comdat align 2 {
entry:
  %retval = alloca i32, align 4
  %this.addr = alloca ptr, align 8
  store ptr %this, ptr %this.addr, align 8
  %this1 = load ptr, ptr %this.addr, align 8
  %m_data = getelementptr inbounds %class.vector.11, ptr %this1, i32 0, i32 0
  %0 = load ptr, ptr %m_data, align 8
  %cmp = icmp eq ptr %0, null
  br i1 %cmp, label %if.then, label %if.end

if.then:                                          ; preds = %entry
  store i32 0, ptr %retval, align 4
  br label %return

if.end:                                           ; preds = %entry
  %m_data2 = getelementptr inbounds %class.vector.11, ptr %this1, i32 0, i32 0
  %1 = load ptr, ptr %m_data2, align 8
  %arrayidx = getelementptr inbounds i32, ptr %1, i64 -1
  %2 = load i32, ptr %arrayidx, align 4
  store i32 %2, ptr %retval, align 4
  br label %return

return:                                           ; preds = %if.end, %if.then
  %3 = load i32, ptr %retval, align 4
  ret i32 %3
}

; Function Attrs: mustprogress nounwind uwtable
define linkonce_odr hidden noundef i32 @_ZNK2lp13static_matrixI8rationalNS_12numeric_pairIS1_EEE12column_countEv(ptr noundef nonnull align 8 dereferenceable(120) %this) #5 comdat align 2 {
entry:
  %this.addr = alloca ptr, align 8
  store ptr %this, ptr %this.addr, align 8
  %this1 = load ptr, ptr %this.addr, align 8
  %m_columns = getelementptr inbounds %"class.lp::static_matrix", ptr %this1, i32 0, i32 4
  %call = call noundef i32 @_ZNK6vectorIS_IN2lp8row_cellINS0_12empty_structEEELb1EjELb1EjE4sizeEv(ptr noundef nonnull align 8 dereferenceable(8) %m_columns)
  ret i32 %call
}

; Function Attrs: mustprogress uwtable
define linkonce_odr hidden noundef i32 @_ZNK2lp19lp_core_solver_baseI8rationalNS_12numeric_pairIS1_EEE3m_nEv(ptr noundef nonnull align 8 dereferenceable(185) %this) #4 comdat align 2 {
entry:
  %this.addr = alloca ptr, align 8
  store ptr %this, ptr %this.addr, align 8
  %this1 = load ptr, ptr %this.addr, align 8
  %m_A = getelementptr inbounds %"class.lp::lp_core_solver_base", ptr %this1, i32 0, i32 7
  %0 = load ptr, ptr %m_A, align 8
  %call = call noundef i32 @_ZNK2lp13static_matrixI8rationalNS_12numeric_pairIS1_EEE12column_countEv(ptr noundef nonnull align 8 dereferenceable(120) %0)
  ret i32 %call
}

; Function Attrs: mustprogress nounwind uwtable
define linkonce_odr hidden noundef nonnull align 4 dereferenceable(4) ptr @_ZN2lp11lp_settings16simplex_strategyEv(ptr noundef nonnull align 8 dereferenceable(299) %this) #5 comdat align 2 {
entry:
  %this.addr = alloca ptr, align 8
  store ptr %this, ptr %this.addr, align 8
  %this1 = load ptr, ptr %this.addr, align 8
  %m_simplex_strategy = getelementptr inbounds %"struct.lp::lp_settings", ptr %this1, i32 0, i32 20
  ret ptr %m_simplex_strategy
}

; Function Attrs: mustprogress uwtable
define hidden void @_ZN2lp15lar_core_solver8prefix_rEv(ptr noundef nonnull align 8 dereferenceable(632) %this) #4 align 2 {
entry:
  %this.addr = alloca ptr, align 8
  store ptr %this, ptr %this.addr, align 8
  %this1 = load ptr, ptr %this.addr, align 8
  %m_r_solver = getelementptr inbounds %"class.lp::lar_core_solver", ptr %this1, i32 0, i32 14
  %m_settings = getelementptr inbounds %"class.lp::lp_core_solver_base", ptr %m_r_solver, i32 0, i32 13
  %0 = load ptr, ptr %m_settings, align 8
  %call = call noundef nonnull align 4 dereferenceable(4) ptr @_ZN2lp11lp_settings16simplex_strategyEv(ptr noundef nonnull align 8 dereferenceable(299) %0)
  %1 = load i32, ptr %call, align 4
  %cmp = icmp ne i32 %1, 0
  br i1 %cmp, label %if.then, label %if.end

if.then:                                          ; preds = %entry
  %m_r_solver2 = getelementptr inbounds %"class.lp::lar_core_solver", ptr %this1, i32 0, i32 14
  %m_costs = getelementptr inbounds %"class.lp::lp_core_solver_base", ptr %m_r_solver2, i32 0, i32 12
  %2 = load ptr, ptr %m_costs, align 8
  %m_r_solver3 = getelementptr inbounds %"class.lp::lar_core_solver", ptr %this1, i32 0, i32 14
  %call4 = call noundef i32 @_ZNK2lp19lp_core_solver_baseI8rationalNS_12numeric_pairIS1_EEE3m_nEv(ptr noundef nonnull align 8 dereferenceable(185) %m_r_solver3)
  call void @_ZN6vectorI8rationalLb1EjE6resizeEj(ptr noundef nonnull align 8 dereferenceable(8) %2, i32 noundef %call4)
  %m_r_solver5 = getelementptr inbounds %"class.lp::lar_core_solver", ptr %this1, i32 0, i32 14
  %m_d = getelementptr inbounds %"class.lp::lp_core_solver_base", ptr %m_r_solver5, i32 0, i32 15
  %m_r_solver6 = getelementptr inbounds %"class.lp::lar_core_solver", ptr %this1, i32 0, i32 14
  %call7 = call noundef i32 @_ZNK2lp19lp_core_solver_baseI8rationalNS_12numeric_pairIS1_EEE3m_nEv(ptr noundef nonnull align 8 dereferenceable(185) %m_r_solver6)
  call void @_ZN6vectorI8rationalLb1EjE6resizeEj(ptr noundef nonnull align 8 dereferenceable(8) %m_d, i32 noundef %call7)
  br label %if.end

if.end:                                           ; preds = %if.then, %entry
  ret void
}