; Function Attrs: mustprogress uwtable
define hidden void @_ZN2lp15lar_core_solver8prefix_rEv(ptr noundef nonnull align 8 dereferenceable(632) %this) local_unnamed_addr #3 align 2 {
entry:
  %m_settings = getelementptr inbounds i8, ptr %this, i64 464
  %0 = load ptr, ptr %m_settings, align 8
  %m_simplex_strategy.i = getelementptr inbounds i8, ptr %0, i64 236
  %1 = load i32, ptr %m_simplex_strategy.i, align 4
  %cmp.not = icmp eq i32 %1, 0
  br i1 %cmp.not, label %if.end, label %if.then

if.then:                                          ; preds = %entry
  %m_costs = getelementptr inbounds i8, ptr %this, i64 456
  %2 = load ptr, ptr %m_costs, align 8
  %m_A.i = getelementptr inbounds i8, ptr %this, i64 416
  %3 = load ptr, ptr %m_A.i, align 8
  %m_columns.i.i = getelementptr inbounds i8, ptr %3, i64 112
  %4 = load ptr, ptr %m_columns.i.i, align 8
  %cmp.i.i.i = icmp eq ptr %4, null
  br i1 %cmp.i.i.i, label %_ZNK2lp19lp_core_solver_baseI8rationalNS_12numeric_pairIS1_EEE3m_nEv.exit, label %if.end.i.i.i

if.end.i.i.i:                                     ; preds = %if.then
  %arrayidx.i.i.i = getelementptr inbounds i8, ptr %4, i64 -4
  %5 = load i32, ptr %arrayidx.i.i.i, align 4
  br label %_ZNK2lp19lp_core_solver_baseI8rationalNS_12numeric_pairIS1_EEE3m_nEv.exit

_ZNK2lp19lp_core_solver_baseI8rationalNS_12numeric_pairIS1_EEE3m_nEv.exit: ; preds = %if.then, %if.end.i.i.i
  %retval.0.i.i.i = phi i32 [ %5, %if.end.i.i.i ], [ 0, %if.then ]
  tail call void @_ZN6vectorI8rationalLb1EjE6resizeEj(ptr noundef nonnull align 8 dereferenceable(8) %2, i32 noundef %retval.0.i.i.i)
  %m_d = getelementptr inbounds i8, ptr %this, i64 480
  %6 = load ptr, ptr %m_A.i, align 8
  %m_columns.i.i2 = getelementptr inbounds i8, ptr %6, i64 112
  %7 = load ptr, ptr %m_columns.i.i2, align 8
  %cmp.i.i.i3 = icmp eq ptr %7, null
  br i1 %cmp.i.i.i3, label %_ZNK2lp19lp_core_solver_baseI8rationalNS_12numeric_pairIS1_EEE3m_nEv.exit7, label %if.end.i.i.i4

if.end.i.i.i4:                                    ; preds = %_ZNK2lp19lp_core_solver_baseI8rationalNS_12numeric_pairIS1_EEE3m_nEv.exit
  %arrayidx.i.i.i5 = getelementptr inbounds i8, ptr %7, i64 -4
  %8 = load i32, ptr %arrayidx.i.i.i5, align 4
  br label %_ZNK2lp19lp_core_solver_baseI8rationalNS_12numeric_pairIS1_EEE3m_nEv.exit7

_ZNK2lp19lp_core_solver_baseI8rationalNS_12numeric_pairIS1_EEE3m_nEv.exit7: ; preds = %_ZNK2lp19lp_core_solver_baseI8rationalNS_12numeric_pairIS1_EEE3m_nEv.exit, %if.end.i.i.i4
  %retval.0.i.i.i6 = phi i32 [ %8, %if.end.i.i.i4 ], [ 0, %_ZNK2lp19lp_core_solver_baseI8rationalNS_12numeric_pairIS1_EEE3m_nEv.exit ]
  tail call void @_ZN6vectorI8rationalLb1EjE6resizeEj(ptr noundef nonnull align 8 dereferenceable(8) %m_d, i32 noundef %retval.0.i.i.i6)
  br label %if.end

if.end:                                           ; preds = %_ZNK2lp19lp_core_solver_baseI8rationalNS_12numeric_pairIS1_EEE3m_nEv.exit7, %entry
  ret void
}